target datalayout = "e-m:e-p270:32:32-p271:32:32-p272:64:64-i64:64-i128:128-f80:128-n8:16:32:64-S128"
target triple = "x86_64-pc-linux-gnu"

%struct.VP8Context = type { ptr, ptr, i32, i32, [4 x ptr], [4 x ptr], ptr, ptr, i16, i16, i64, i64, i8, i8, i8, i8, %struct.VP8mvbounds, [4 x i8], [3 x i32], %struct.anon, %struct.anon.0, ptr, ptr, [4 x i8], [4 x %struct.anon.1], %struct.anon.2, %struct.anon.3, ptr, ptr, %struct.VPXRangeCoder, %struct.anon.4, i32, [2 x %struct.anon.5], ptr, i32, i32, i32, i32, i32, i32, [8 x %struct.VPXRangeCoder], [8 x i32], %struct.VideoDSPContext, %struct.VP8DSPContext, %struct.H264PredContext, [3 x [3 x [3 x ptr]]], [5 x %struct.VP8Frame], i8, i8, i32, i32, ptr, ptr, [2 x [2 x i16]], [4 x i8], [4 x i8], [4 x [3 x i8]], [4 x [4 x i8]] }
%struct.VP8mvbounds = type { %struct.VP8intmv, %struct.VP8intmv }
%struct.VP8intmv = type { i32, i32 }
%struct.anon = type { i8, i8, i8, i8, [4 x i8], [4 x i8] }
%struct.anon.0 = type { i8, i8, i8 }
%struct.anon.1 = type { [2 x i16], [2 x i16], [2 x i16] }
%struct.anon.2 = type { i32, i32, i32, i32, i32, i32 }
%struct.anon.3 = type { i8, i8, [8 x i8], [4 x i8] }
%struct.VPXRangeCoder = type { i32, i32, ptr, ptr, i32, i32 }
%struct.anon.4 = type { ptr, i32, i32, i32 }
%struct.anon.5 = type { [3 x i8], i8, i8, i8, i8, [4 x i8], [3 x i8], [4 x [16 x [3 x [11 x i8]]]], [2 x [19 x i8]], [16 x i8] }
%struct.VideoDSPContext = type { ptr, ptr }
%struct.VP8DSPContext = type { ptr, ptr, ptr, ptr, ptr, ptr, ptr, ptr, ptr, ptr, ptr, ptr, ptr, ptr, ptr, ptr, [3 x [3 x [3 x ptr]]], [3 x [3 x [3 x ptr]]] }
%struct.H264PredContext = type { [15 x ptr], [12 x ptr], [11 x ptr], [9 x ptr], [2 x ptr], [2 x ptr], [2 x ptr], [3 x ptr], [3 x ptr] }
%struct.VP8Frame = type { %struct.ProgressFrame, ptr, ptr }
%struct.ProgressFrame = type { ptr, ptr }
%struct.VP8ThreadData = type { [6 x [4 x [16 x i16]]], [16 x i16], [6 x [4 x i8]], [9 x i8], i32, %union.pthread_mutex_t, %union.pthread_cond_t, i32, i32, [8 x i8], [672 x i8], ptr, %struct.VP8mvbounds, [8 x i8] }
%union.pthread_mutex_t = type { %struct.__pthread_mutex_s }
%struct.__pthread_mutex_s = type { i32, i32, i32, i32, i32, i16, i16, %struct.__pthread_internal_list }
%struct.__pthread_internal_list = type { ptr, ptr }
%union.pthread_cond_t = type { %struct.__pthread_cond_s }
%struct.__pthread_cond_s = type { %union.__atomic_wide_counter, %union.__atomic_wide_counter, [2 x i32], [2 x i32], i32, i32, [2 x i32] }
%union.__atomic_wide_counter = type { i64 }

; Function Attrs: nounwind uwtable
define internal void @free_buffers(ptr noundef %0) #1 {
  %2 = alloca ptr, align 8
  %3 = alloca i32, align 4
  store ptr %0, ptr %2, align 8, !tbaa !30
  call void @llvm.lifetime.start.p0(i64 4, ptr %3) #12
  %4 = load ptr, ptr %2, align 8, !tbaa !30
  %5 = getelementptr inbounds nuw %struct.VP8Context, ptr %4, i32 0, i32 0
  %6 = load ptr, ptr %5, align 8, !tbaa !114
  %7 = icmp ne ptr %6, null
  br i1 %7, label %8, label %40

8:                                                ; preds = %1
  store i32 0, ptr %3, align 4, !tbaa !9
  br label %9

9:                                                ; preds = %36, %8
  %10 = load i32, ptr %3, align 4, !tbaa !9
  %11 = icmp slt i32 %10, 8
  br i1 %11, label %12, label %39

12:                                               ; preds = %9
  %13 = load ptr, ptr %2, align 8, !tbaa !30
  %14 = getelementptr inbounds nuw %struct.VP8Context, ptr %13, i32 0, i32 0
  %15 = load ptr, ptr %14, align 8, !tbaa !114
  %16 = load i32, ptr %3, align 4, !tbaa !9
  %17 = sext i32 %16 to i64
  %18 = getelementptr inbounds %struct.VP8ThreadData, ptr %15, i64 %17
  %19 = getelementptr inbounds nuw %struct.VP8ThreadData, ptr %18, i32 0, i32 6
  %20 = call i32 @pthread_cond_destroy(ptr noundef %19) #12
  %21 = load ptr, ptr %2, align 8, !tbaa !30
  %22 = getelementptr inbounds nuw %struct.VP8Context, ptr %21, i32 0, i32 0
  %23 = load ptr, ptr %22, align 8, !tbaa !114
  %24 = load i32, ptr %3, align 4, !tbaa !9
  %25 = sext i32 %24 to i64
  %26 = getelementptr inbounds %struct.VP8ThreadData, ptr %23, i64 %25
  %27 = getelementptr inbounds nuw %struct.VP8ThreadData, ptr %26, i32 0, i32 5
  %28 = call i32 @pthread_mutex_destroy(ptr noundef %27) #12
  %29 = load ptr, ptr %2, align 8, !tbaa !30
  %30 = getelementptr inbounds nuw %struct.VP8Context, ptr %29, i32 0, i32 0
  %31 = load ptr, ptr %30, align 8, !tbaa !114
  %32 = load i32, ptr %3, align 4, !tbaa !9
  %33 = sext i32 %32 to i64
  %34 = getelementptr inbounds %struct.VP8ThreadData, ptr %31, i64 %33
  %35 = getelementptr inbounds nuw %struct.VP8ThreadData, ptr %34, i32 0, i32 11
  call void @av_freep(ptr noundef %35)
  br label %36

36:                                               ; preds = %12
  %37 = load i32, ptr %3, align 4, !tbaa !9
  %38 = add nsw i32 %37, 1
  store i32 %38, ptr %3, align 4, !tbaa !9
  br label %9, !llvm.loop !129

39:                                               ; preds = %9
  br label %40

40:                                               ; preds = %39, %1
  %41 = load ptr, ptr %2, align 8, !tbaa !30
  %42 = getelementptr inbounds nuw %struct.VP8Context, ptr %41, i32 0, i32 0
  call void @av_freep(ptr noundef %42)
  %43 = load ptr, ptr %2, align 8, !tbaa !30
  %44 = getelementptr inbounds nuw %struct.VP8Context, ptr %43, i32 0, i32 33
  call void @av_freep(ptr noundef %44)
  %45 = load ptr, ptr %2, align 8, !tbaa !30
  %46 = getelementptr inbounds nuw %struct.VP8Context, ptr %45, i32 0, i32 22
  call void @av_freep(ptr noundef %46)
  %47 = load ptr, ptr %2, align 8, !tbaa !30
  %48 = getelementptr inbounds nuw %struct.VP8Context, ptr %47, i32 0, i32 28
  call void @av_freep(ptr noundef %48)
  %49 = load ptr, ptr %2, align 8, !tbaa !30
  %50 = getelementptr inbounds nuw %struct.VP8Context, ptr %49, i32 0, i32 27
  call void @av_freep(ptr noundef %50)
  %51 = load ptr, ptr %2, align 8, !tbaa !30
  %52 = getelementptr inbounds nuw %struct.VP8Context, ptr %51, i32 0, i32 21
  store ptr null, ptr %52, align 8, !tbaa !101
  call void @llvm.lifetime.end.p0(i64 4, ptr %3) #12
  ret void
}