; Function Attrs: nounwind uwtable
define internal fastcc void @free_buffers(ptr noundef %0) unnamed_addr #1 {
  %2 = load ptr, ptr %0, align 8, !tbaa !105
  %.not = icmp eq ptr %2, null
  br i1 %.not, label %.loopexit, label %.preheader

.preheader:                                       ; preds = %1, %.preheader
  %indvars.iv = phi i64 [ %indvars.iv.next, %.preheader ], [ 0, %1 ]
  %3 = load ptr, ptr %0, align 8, !tbaa !105
  %4 = getelementptr inbounds nuw %struct.VP8ThreadData, ptr %3, i64 %indvars.iv, i32 6
  %5 = tail call i32 @pthread_cond_destroy(ptr noundef nonnull %4) #12
  %6 = load ptr, ptr %0, align 8, !tbaa !105
  %7 = getelementptr inbounds nuw %struct.VP8ThreadData, ptr %6, i64 %indvars.iv, i32 5
  %8 = tail call i32 @pthread_mutex_destroy(ptr noundef nonnull %7) #12
  %9 = load ptr, ptr %0, align 8, !tbaa !105
  %10 = getelementptr inbounds nuw %struct.VP8ThreadData, ptr %9, i64 %indvars.iv, i32 11
  tail call void @av_freep(ptr noundef nonnull %10) #12
  %indvars.iv.next = add nuw nsw i64 %indvars.iv, 1
  %exitcond.not = icmp eq i64 %indvars.iv.next, 8
  br i1 %exitcond.not, label %.loopexit, label %.preheader, !llvm.loop !254

.loopexit:                                        ; preds = %.preheader, %1
  tail call void @av_freep(ptr noundef nonnull %0) #12
  %11 = getelementptr inbounds nuw i8, ptr %0, i64 4736
  tail call void @av_freep(ptr noundef nonnull %11) #12
  %12 = getelementptr inbounds nuw i8, ptr %0, i64 192
  tail call void @av_freep(ptr noundef nonnull %12) #12
  %13 = getelementptr inbounds nuw i8, ptr %0, i64 304
  tail call void @av_freep(ptr noundef nonnull %13) #12
  %14 = getelementptr inbounds nuw i8, ptr %0, i64 296
  tail call void @av_freep(ptr noundef nonnull %14) #12
  %15 = getelementptr inbounds nuw i8, ptr %0, i64 184
  store ptr null, ptr %15, align 8, !tbaa !111
  ret void
}